; Function Attrs: mustprogress nounwind uwtable
define noundef i64 @_ZNK18OpenImageIO_v2_6_09ImageSpec11pixel_bytesEiib(ptr noundef nonnull align 8 dereferenceable(160) %this, i32 noundef %chbegin, i32 noundef %chend, i1 noundef zeroext %native) local_unnamed_addr #3 align 2 personality ptr @__gxx_personality_v0 {
entry:
  %cmp = icmp slt i32 %chbegin, 0
  br i1 %cmp, label %return, label %if.end

if.end:                                           ; preds = %entry
  %.sroa.speculated = tail call i32 @llvm.smax.i32(i32 %chend, i32 %chbegin)
  br i1 %native, label %lor.lhs.false, label %if.then3

lor.lhs.false:                                    ; preds = %if.end
  %channelformats = getelementptr inbounds i8, ptr %this, i64 72
  %0 = load ptr, ptr %channelformats, align 8
  %_M_finish.i.i = getelementptr inbounds i8, ptr %this, i64 80
  %1 = load ptr, ptr %_M_finish.i.i, align 8
  %cmp.i.i = icmp eq ptr %0, %1
  br i1 %cmp.i.i, label %if.then3, label %for.cond.preheader

for.cond.preheader:                               ; preds = %lor.lhs.false
  %cmp1014 = icmp sgt i32 %chend, %chbegin
  br i1 %cmp1014, label %for.body.preheader, label %return

for.body.preheader:                               ; preds = %for.cond.preheader
  %2 = zext nneg i32 %chbegin to i64
  br label %for.body

if.then3:                                         ; preds = %lor.lhs.false, %if.end
  %sub = sub nsw i32 %.sroa.speculated, %chbegin
  %format.i = getelementptr inbounds i8, ptr %this, i64 64
  %arraylen.i.i = getelementptr inbounds i8, ptr %this, i64 68
  %3 = load i32, ptr %arraylen.i.i, align 4
  %narrow.i.i = tail call i32 @llvm.smax.i32(i32 %3, i32 1)
  %aggregate.i.i.i = getelementptr inbounds i8, ptr %this, i64 65
  %4 = load i8, ptr %aggregate.i.i.i, align 1
  %conv.i.i.i = zext i8 %4 to i64
  %call.i.i.i = tail call noundef i64 @_ZNK18OpenImageIO_v2_6_08TypeDesc8basesizeEv(ptr noundef nonnull align 4 dereferenceable(8) %format.i) #28
  %mul.i.i.i = mul i64 %call.i.i.i, %conv.i.i.i
  %5 = trunc i64 %mul.i.i.i to i32
  %conv6 = mul i32 %narrow.i.i, %5
  %conv.i = zext i32 %sub to i64
  %conv1.i = zext i32 %conv6 to i64
  %mul.i = mul nuw i64 %conv1.i, %conv.i
  %cond2.i = tail call i64 @llvm.umin.i64(i64 %mul.i, i64 4294967295)
  br label %return

for.body:                                         ; preds = %for.body.preheader, %for.body
  %indvars.iv = phi i64 [ %2, %for.body.preheader ], [ %indvars.iv.next, %for.body ]
  %sum.015 = phi i64 [ 0, %for.body.preheader ], [ %add, %for.body ]
  %6 = load ptr, ptr %channelformats, align 8
  %add.ptr.i = getelementptr inbounds %"struct.OpenImageIO_v2_6_0::TypeDesc", ptr %6, i64 %indvars.iv
  %arraylen.i = getelementptr inbounds i8, ptr %add.ptr.i, i64 4
  %7 = load i32, ptr %arraylen.i, align 4
  %narrow.i = tail call i32 @llvm.smax.i32(i32 %7, i32 1)
  %spec.select.i = zext nneg i32 %narrow.i to i64
  %aggregate.i.i = getelementptr inbounds i8, ptr %add.ptr.i, i64 1
  %8 = load i8, ptr %aggregate.i.i, align 1
  %conv.i.i = zext i8 %8 to i64
  %call.i.i = tail call noundef i64 @_ZNK18OpenImageIO_v2_6_08TypeDesc8basesizeEv(ptr noundef nonnull align 4 dereferenceable(8) %add.ptr.i) #28
  %mul.i.i4 = mul i64 %call.i.i, %conv.i.i
  %mul.i5 = mul i64 %mul.i.i4, %spec.select.i
  %add = add i64 %mul.i5, %sum.015
  %indvars.iv.next = add nuw nsw i64 %indvars.iv, 1
  %9 = trunc i64 %indvars.iv.next to i32
  %cmp10 = icmp sgt i32 %.sroa.speculated, %9
  br i1 %cmp10, label %for.body, label %return, !llvm.loop !12

return:                                           ; preds = %for.body, %for.cond.preheader, %entry, %if.then3
  %retval.0 = phi i64 [ %cond2.i, %if.then3 ], [ 0, %entry ], [ 0, %for.cond.preheader ], [ %add, %for.body ]
  ret i64 %retval.0
}